; ModuleID = '53/787.c'
source_filename = "53/787.c"
target datalayout = "e-m:e-p270:32:32-p271:32:32-p272:64:64-i64:64-f80:128-n8:16:32:64-S128"
target triple = "x86_64-pc-linux-gnu"

@.str = private unnamed_addr constant [3 x i8] c"%d\00", align 1
@.str.1 = private unnamed_addr constant [4 x i8] c",%d\00", align 1

; Function Attrs: noinline nounwind uwtable
define dso_local void @main() #0 {
  %1 = alloca [300 x i32], align 16
  %2 = alloca i32, align 4
  %3 = alloca i32*, align 8
  %4 = alloca i32*, align 8
  %5 = alloca i32*, align 8
  %6 = alloca i32, align 4
  %7 = alloca i32, align 4
  %8 = alloca i32, align 4
  %9 = bitcast [300 x i32]* %1 to i8*
  call void @llvm.memset.p0i8.i64(i8* align 16 %9, i8 0, i64 1200, i1 false)
  store i32 1, i32* %8, align 4
  %10 = call i32 (i8*, ...) @__isoc99_scanf(i8* getelementptr inbounds ([3 x i8], [3 x i8]* @.str, i64 0, i64 0), i32* %2)
  store i32 0, i32* %6, align 4
  br label %11

11:                                               ; preds = %20, %0
  %12 = load i32, i32* %6, align 4
  %13 = load i32, i32* %2, align 4
  %14 = icmp slt i32 %12, %13
  br i1 %14, label %15, label %23

15:                                               ; preds = %11
  %16 = load i32, i32* %6, align 4
  %17 = sext i32 %16 to i64
  %18 = getelementptr inbounds [300 x i32], [300 x i32]* %1, i64 0, i64 %17
  %19 = call i32 (i8*, ...) @__isoc99_scanf(i8* getelementptr inbounds ([3 x i8], [3 x i8]* @.str, i64 0, i64 0), i32* %18)
  br label %20

20:                                               ; preds = %15
  %21 = load i32, i32* %6, align 4
  %22 = add nsw i32 %21, 1
  store i32 %22, i32* %6, align 4
  br label %11

23:                                               ; preds = %11
  store i32 0, i32* %6, align 4
  br label %24

24:                                               ; preds = %59, %23
  %25 = load i32, i32* %6, align 4
  %26 = load i32, i32* %2, align 4
  %27 = sub nsw i32 %26, 1
  %28 = icmp slt i32 %25, %27
  br i1 %28, label %29, label %62

29:                                               ; preds = %24
  %30 = load i32, i32* %6, align 4
  %31 = add nsw i32 %30, 1
  store i32 %31, i32* %7, align 4
  br label %32

32:                                               ; preds = %48, %29
  %33 = load i32, i32* %7, align 4
  %34 = load i32, i32* %2, align 4
  %35 = icmp slt i32 %33, %34
  br i1 %35, label %36, label %51

36:                                               ; preds = %32
  %37 = load i32, i32* %6, align 4
  %38 = sext i32 %37 to i64
  %39 = getelementptr inbounds [300 x i32], [300 x i32]* %1, i64 0, i64 %38
  %40 = load i32, i32* %39, align 4
  %41 = load i32, i32* %7, align 4
  %42 = sext i32 %41 to i64
  %43 = getelementptr inbounds [300 x i32], [300 x i32]* %1, i64 0, i64 %42
  %44 = load i32, i32* %43, align 4
  %45 = icmp eq i32 %40, %44
  br i1 %45, label %46, label %47

46:                                               ; preds = %36
  br label %51

47:                                               ; preds = %36
  br label %48

48:                                               ; preds = %47
  %49 = load i32, i32* %7, align 4
  %50 = add nsw i32 %49, 1
  store i32 %50, i32* %7, align 4
  br label %32

51:                                               ; preds = %46, %32
  %52 = load i32, i32* %7, align 4
  %53 = load i32, i32* %2, align 4
  %54 = icmp eq i32 %52, %53
  br i1 %54, label %55, label %58

55:                                               ; preds = %51
  %56 = load i32, i32* %8, align 4
  %57 = add nsw i32 %56, 1
  store i32 %57, i32* %8, align 4
  br label %58

58:                                               ; preds = %55, %51
  br label %59

59:                                               ; preds = %58
  %60 = load i32, i32* %6, align 4
  %61 = add nsw i32 %60, 1
  store i32 %61, i32* %6, align 4
  br label %24

62:                                               ; preds = %24
  %63 = getelementptr inbounds [300 x i32], [300 x i32]* %1, i64 0, i64 0
  %64 = load i32, i32* %2, align 4
  %65 = sext i32 %64 to i64
  %66 = getelementptr inbounds i32, i32* %63, i64 %65
  %67 = getelementptr inbounds i32, i32* %66, i64 -1
  store i32* %67, i32** %3, align 8
  br label %68

68:                                               ; preds = %107, %62
  %69 = load i32*, i32** %3, align 8
  %70 = getelementptr inbounds [300 x i32], [300 x i32]* %1, i64 0, i64 0
  %71 = icmp ugt i32* %69, %70
  br i1 %71, label %72, label %110

72:                                               ; preds = %68
  %73 = getelementptr inbounds [300 x i32], [300 x i32]* %1, i64 0, i64 0
  store i32* %73, i32** %4, align 8
  br label %74

74:                                               ; preds = %103, %72
  %75 = load i32*, i32** %4, align 8
  %76 = load i32*, i32** %3, align 8
  %77 = icmp ult i32* %75, %76
  br i1 %77, label %78, label %106

78:                                               ; preds = %74
  %79 = load i32*, i32** %3, align 8
  %80 = load i32, i32* %79, align 4
  %81 = load i32*, i32** %4, align 8
  %82 = load i32, i32* %81, align 4
  %83 = icmp eq i32 %80, %82
  br i1 %83, label %84, label %102

84:                                               ; preds = %78
  %85 = load i32*, i32** %3, align 8
  store i32* %85, i32** %5, align 8
  br label %86

86:                                               ; preds = %98, %84
  %87 = load i32*, i32** %5, align 8
  %88 = getelementptr inbounds [300 x i32], [300 x i32]* %1, i64 0, i64 0
  %89 = load i32, i32* %2, align 4
  %90 = sext i32 %89 to i64
  %91 = getelementptr inbounds i32, i32* %88, i64 %90
  %92 = icmp ult i32* %87, %91
  br i1 %92, label %93, label %101

93:                                               ; preds = %86
  %94 = load i32*, i32** %5, align 8
  %95 = getelementptr inbounds i32, i32* %94, i64 1
  %96 = load i32, i32* %95, align 4
  %97 = load i32*, i32** %5, align 8
  store i32 %96, i32* %97, align 4
  br label %98

98:                                               ; preds = %93
  %99 = load i32*, i32** %5, align 8
  %100 = getelementptr inbounds i32, i32* %99, i32 1
  store i32* %100, i32** %5, align 8
  br label %86

101:                                              ; preds = %86
  br label %102

102:                                              ; preds = %101, %78
  br label %103

103:                                              ; preds = %102
  %104 = load i32*, i32** %4, align 8
  %105 = getelementptr inbounds i32, i32* %104, i32 1
  store i32* %105, i32** %4, align 8
  br label %74

106:                                              ; preds = %74
  br label %107

107:                                              ; preds = %106
  %108 = load i32*, i32** %3, align 8
  %109 = getelementptr inbounds i32, i32* %108, i32 -1
  store i32* %109, i32** %3, align 8
  br label %68

110:                                              ; preds = %68
  %111 = getelementptr inbounds [300 x i32], [300 x i32]* %1, i64 0, i64 0
  %112 = load i32, i32* %111, align 16
  %113 = call i32 (i8*, ...) @printf(i8* getelementptr inbounds ([3 x i8], [3 x i8]* @.str, i64 0, i64 0), i32 %112)
  store i32 1, i32* %6, align 4
  br label %114

114:                                              ; preds = %124, %110
  %115 = load i32, i32* %6, align 4
  %116 = load i32, i32* %8, align 4
  %117 = icmp slt i32 %115, %116
  br i1 %117, label %118, label %127

118:                                              ; preds = %114
  %119 = load i32, i32* %6, align 4
  %120 = sext i32 %119 to i64
  %121 = getelementptr inbounds [300 x i32], [300 x i32]* %1, i64 0, i64 %120
  %122 = load i32, i32* %121, align 4
  %123 = call i32 (i8*, ...) @printf(i8* getelementptr inbounds ([4 x i8], [4 x i8]* @.str.1, i64 0, i64 0), i32 %122)
  br label %124

124:                                              ; preds = %118
  %125 = load i32, i32* %6, align 4
  %126 = add nsw i32 %125, 1
  store i32 %126, i32* %6, align 4
  br label %114

127:                                              ; preds = %114
  ret void
}

; Function Attrs: argmemonly nounwind willreturn
declare void @llvm.memset.p0i8.i64(i8* nocapture writeonly, i8, i64, i1 immarg) #1

declare dso_local i32 @__isoc99_scanf(i8*, ...) #2

declare dso_local i32 @printf(i8*, ...) #2


!llvm.module.flags = !{!0}
!llvm.ident = !{!1}

!0 = !{i32 1, !"wchar_size", i32 4}
!1 = !{!"clang version 10.0.0-4ubuntu1 "}
